target datalayout = "e-m:e-p270:32:32-p271:32:32-p272:64:64-i64:64-i128:128-f80:128-n8:16:32:64-S128"
target triple = "x86_64-pc-linux-gnu"

%"class.duckdb_snappy::ByteArraySource" = type { %"class.duckdb_snappy::Source", ptr, i64 }
%"class.duckdb_snappy::Source" = type { ptr }

; Function Attrs: mustprogress nounwind uwtable
define linkonce_odr void @_ZN13duckdb_snappy6SourceC2Ev(ptr noundef nonnull align 8 dereferenceable(8) %0) unnamed_addr #0 comdat align 2 {
  %2 = alloca ptr, align 8
  store ptr %0, ptr %2, align 8, !tbaa !71
  %3 = load ptr, ptr %2, align 8
  store ptr getelementptr inbounds inrange(-16, 40) ({ [7 x ptr] }, ptr @_ZTVN13duckdb_snappy6SourceE, i32 0, i32 0, i32 2), ptr %3, align 8, !tbaa !67
  ret void
}

; Function Attrs: mustprogress uwtable
define linkonce_odr void @_ZN13duckdb_snappy15ByteArraySourceC2EPKcm(ptr noundef nonnull align 8 dereferenceable(24) %0, ptr noundef %1, i64 noundef %2) unnamed_addr #1 comdat align 2 {
  %4 = alloca ptr, align 8
  %5 = alloca ptr, align 8
  %6 = alloca i64, align 8
  store ptr %0, ptr %4, align 8, !tbaa !83
  store ptr %1, ptr %5, align 8, !tbaa !7
  store i64 %2, ptr %6, align 8, !tbaa !3
  %7 = load ptr, ptr %4, align 8
  call void @_ZN13duckdb_snappy6SourceC2Ev(ptr noundef nonnull align 8 dereferenceable(8) %7)
  store ptr getelementptr inbounds inrange(-16, 40) ({ [7 x ptr] }, ptr @_ZTVN13duckdb_snappy15ByteArraySourceE, i32 0, i32 0, i32 2), ptr %7, align 8, !tbaa !67
  %8 = getelementptr inbounds nuw %"class.duckdb_snappy::ByteArraySource", ptr %7, i32 0, i32 1
  %9 = load ptr, ptr %5, align 8, !tbaa !7
  store ptr %9, ptr %8, align 8, !tbaa !85
  %10 = getelementptr inbounds nuw %"class.duckdb_snappy::ByteArraySource", ptr %7, i32 0, i32 2
  %11 = load i64, ptr %6, align 8, !tbaa !3
  store i64 %11, ptr %10, align 8, !tbaa !88
  ret void
}

; Function Attrs: mustprogress uwtable
define noundef zeroext i1 @_ZN13duckdb_snappy13RawUncompressEPKcmPc(ptr noundef %0, i64 noundef %1, ptr noundef %2) #1 personality ptr @__gxx_personality_v0 {
  %4 = alloca ptr, align 8
  %5 = alloca i64, align 8
  %6 = alloca ptr, align 8
  %7 = alloca %"class.duckdb_snappy::ByteArraySource", align 8
  %8 = alloca ptr, align 8
  %9 = alloca i32, align 4
  store ptr %0, ptr %4, align 8, !tbaa !7
  store i64 %1, ptr %5, align 8, !tbaa !3
  store ptr %2, ptr %6, align 8, !tbaa !7
  call void @llvm.lifetime.start.p0(i64 24, ptr %7) #17
  %10 = load ptr, ptr %4, align 8, !tbaa !7
  %11 = load i64, ptr %5, align 8, !tbaa !3
  call void @_ZN13duckdb_snappy15ByteArraySourceC2EPKcm(ptr noundef nonnull align 8 dereferenceable(24) %7, ptr noundef %10, i64 noundef %11)
  %12 = load ptr, ptr %6, align 8, !tbaa !7
  %13 = invoke noundef zeroext i1 @_ZN13duckdb_snappy13RawUncompressEPNS_6SourceEPc(ptr noundef %7, ptr noundef %12)
          to label %14 unwind label %15

14:                                               ; preds = %3
  call void @_ZN13duckdb_snappy15ByteArraySourceD1Ev(ptr noundef nonnull align 8 dereferenceable(24) %7) #17
  call void @llvm.lifetime.end.p0(i64 24, ptr %7) #17
  ret i1 %13

15:                                               ; preds = %3
  %16 = landingpad { ptr, i32 }
          cleanup
  %17 = extractvalue { ptr, i32 } %16, 0
  store ptr %17, ptr %8, align 8
  %18 = extractvalue { ptr, i32 } %16, 1
  store i32 %18, ptr %9, align 4
  call void @_ZN13duckdb_snappy15ByteArraySourceD1Ev(ptr noundef nonnull align 8 dereferenceable(24) %7) #17
  call void @llvm.lifetime.end.p0(i64 24, ptr %7) #17
  br label %19

19:                                               ; preds = %15
  %20 = load ptr, ptr %8, align 8
  %21 = load i32, ptr %9, align 4
  %22 = insertvalue { ptr, i32 } poison, ptr %20, 0
  %23 = insertvalue { ptr, i32 } %22, i32 %21, 1
  resume { ptr, i32 } %23
}